; Function Attrs: mustprogress noinline uwtable
define dso_local void @_ZN4Luau7CodeGen3X6418AssemblyBuilderX643logEPKcNS1_10OperandX64ES5_S5_(ptr noundef nonnull align 8 dereferenceable(252) %0, ptr noundef %1, i64 %2, i64 %3, i64 %4) local_unnamed_addr #4 align 2 personality ptr @__gxx_personality_v0 {
  tail call void (ptr, ptr, ...) @_ZN4Luau7CodeGen3X6418AssemblyBuilderX649logAppendEPKcz(ptr noundef nonnull align 8 dereferenceable(252) %0, ptr noundef nonnull @.str.87, ptr noundef %1)
  tail call void @_ZN4Luau7CodeGen3X6418AssemblyBuilderX643logENS1_10OperandX64E(ptr noundef nonnull align 8 dereferenceable(252) %0, i64 %2)
  %6 = getelementptr inbounds nuw i8, ptr %0, i64 48
  %7 = getelementptr inbounds nuw i8, ptr %0, i64 56
  %8 = load i64, ptr %7, align 8, !tbaa !10
  %9 = icmp eq i64 %8, 4611686018427387903
  br i1 %9, label %10, label %_ZNSt7__cxx1112basic_stringIcSt11char_traitsIcESaIcEE6appendEPKc.exit

10:                                               ; preds = %5
  tail call void @_ZSt20__throw_length_errorPKc(ptr noundef nonnull @.str.290) #21
  unreachable

_ZNSt7__cxx1112basic_stringIcSt11char_traitsIcESaIcEE6appendEPKc.exit: ; preds = %5
  %11 = tail call noundef nonnull align 8 dereferenceable(32) ptr @_ZNSt7__cxx1112basic_stringIcSt11char_traitsIcESaIcEE9_M_appendEPKcm(ptr noundef nonnull align 8 dereferenceable(32) %6, ptr noundef nonnull @.str.89, i64 noundef 1)
  tail call void @_ZN4Luau7CodeGen3X6418AssemblyBuilderX643logENS1_10OperandX64E(ptr noundef nonnull align 8 dereferenceable(252) %0, i64 %3)
  %12 = load i64, ptr %7, align 8, !tbaa !10
  %13 = icmp eq i64 %12, 4611686018427387903
  br i1 %13, label %14, label %_ZNSt7__cxx1112basic_stringIcSt11char_traitsIcESaIcEE6appendEPKc.exit7

14:                                               ; preds = %_ZNSt7__cxx1112basic_stringIcSt11char_traitsIcESaIcEE6appendEPKc.exit
  tail call void @_ZSt20__throw_length_errorPKc(ptr noundef nonnull @.str.290) #21
  unreachable

_ZNSt7__cxx1112basic_stringIcSt11char_traitsIcESaIcEE6appendEPKc.exit7: ; preds = %_ZNSt7__cxx1112basic_stringIcSt11char_traitsIcESaIcEE6appendEPKc.exit
  %15 = tail call noundef nonnull align 8 dereferenceable(32) ptr @_ZNSt7__cxx1112basic_stringIcSt11char_traitsIcESaIcEE9_M_appendEPKcm(ptr noundef nonnull align 8 dereferenceable(32) %6, ptr noundef nonnull @.str.89, i64 noundef 1)
  tail call void @_ZN4Luau7CodeGen3X6418AssemblyBuilderX643logENS1_10OperandX64E(ptr noundef nonnull align 8 dereferenceable(252) %0, i64 %4)
  %16 = load i64, ptr %7, align 8, !tbaa !10
  %17 = icmp eq i64 %16, 4611686018427387903
  br i1 %17, label %18, label %_ZNSt7__cxx1112basic_stringIcSt11char_traitsIcESaIcEE6appendEPKc.exit8

18:                                               ; preds = %_ZNSt7__cxx1112basic_stringIcSt11char_traitsIcESaIcEE6appendEPKc.exit7
  tail call void @_ZSt20__throw_length_errorPKc(ptr noundef nonnull @.str.290) #21
  unreachable

_ZNSt7__cxx1112basic_stringIcSt11char_traitsIcESaIcEE6appendEPKc.exit8: ; preds = %_ZNSt7__cxx1112basic_stringIcSt11char_traitsIcESaIcEE6appendEPKc.exit7
  %19 = tail call noundef nonnull align 8 dereferenceable(32) ptr @_ZNSt7__cxx1112basic_stringIcSt11char_traitsIcESaIcEE9_M_appendEPKcm(ptr noundef nonnull align 8 dereferenceable(32) %6, ptr noundef nonnull @.str.88, i64 noundef 1)
  ret void
}